; ModuleID = 'source-C-CXX/2/3050.c'
source_filename = "source-C-CXX/2/3050.c"
target datalayout = "e-m:e-p270:32:32-p271:32:32-p272:64:64-i64:64-f80:128-n8:16:32:64-S128"
target triple = "x86_64-pc-linux-gnu"

@.str = private unnamed_addr constant [6 x i8] c"%d %d\00", align 1
@.str.1 = private unnamed_addr constant [3 x i8] c"%d\00", align 1
@.str.2 = private unnamed_addr constant [3 x i8] c"no\00", align 1
@.str.3 = private unnamed_addr constant [4 x i8] c"yes\00", align 1

; Function Attrs: nofree nounwind sspstrong uwtable
define dso_local i32 @main() local_unnamed_addr #0 {
  %1 = alloca i32, align 4
  %2 = alloca i32, align 4
  %3 = alloca [1001 x i32], align 16
  %4 = bitcast i32* %1 to i8*
  call void @llvm.lifetime.start.p0i8(i64 4, i8* nonnull %4) #4
  %5 = bitcast i32* %2 to i8*
  call void @llvm.lifetime.start.p0i8(i64 4, i8* nonnull %5) #4
  %6 = bitcast [1001 x i32]* %3 to i8*
  call void @llvm.lifetime.start.p0i8(i64 4004, i8* nonnull %6) #4
  call void @llvm.memset.p0i8.i64(i8* noundef nonnull align 16 dereferenceable(4004) %6, i8 0, i64 4004, i1 false)
  %7 = call i32 (i8*, ...) @__isoc99_scanf(i8* getelementptr inbounds ([6 x i8], [6 x i8]* @.str, i64 0, i64 0), i32* nonnull %1, i32* nonnull %2)
  %8 = load i32, i32* %1, align 4, !tbaa !5
  %9 = icmp sgt i32 %8, 0
  br i1 %9, label %18, label %59

10:                                               ; preds = %18
  %11 = load i32, i32* %2, align 4
  %12 = icmp sgt i32 %23, 1
  br i1 %12, label %13, label %59

13:                                               ; preds = %10
  %14 = zext i32 %23 to i64
  %15 = add nsw i32 %23, -1
  %16 = zext i32 %15 to i64
  %17 = zext i32 %23 to i64
  br label %26

18:                                               ; preds = %0, %18
  %19 = phi i64 [ %22, %18 ], [ 0, %0 ]
  %20 = getelementptr inbounds [1001 x i32], [1001 x i32]* %3, i64 0, i64 %19
  %21 = call i32 (i8*, ...) @__isoc99_scanf(i8* getelementptr inbounds ([3 x i8], [3 x i8]* @.str.1, i64 0, i64 0), i32* nonnull %20)
  %22 = add nuw nsw i64 %19, 1
  %23 = load i32, i32* %1, align 4, !tbaa !5
  %24 = sext i32 %23 to i64
  %25 = icmp slt i64 %22, %24
  br i1 %25, label %18, label %10, !llvm.loop !9

26:                                               ; preds = %13, %52
  %27 = phi i64 [ 0, %13 ], [ %30, %52 ]
  %28 = phi i64 [ 1, %13 ], [ %54, %52 ]
  %29 = phi i32 [ 0, %13 ], [ %53, %52 ]
  %30 = add nuw nsw i64 %27, 1
  %31 = icmp ult i64 %30, %14
  br i1 %31, label %32, label %52

32:                                               ; preds = %26
  %33 = icmp eq i32 %29, 0
  %34 = getelementptr inbounds [1001 x i32], [1001 x i32]* %3, i64 0, i64 %27
  %35 = load i32, i32* %34, align 4, !tbaa !5
  br i1 %33, label %36, label %45

36:                                               ; preds = %32, %42
  %37 = phi i64 [ %43, %42 ], [ %28, %32 ]
  %38 = getelementptr inbounds [1001 x i32], [1001 x i32]* %3, i64 0, i64 %37
  %39 = load i32, i32* %38, align 4, !tbaa !5
  %40 = add nsw i32 %39, %35
  %41 = icmp eq i32 %40, %11
  br i1 %41, label %50, label %42

42:                                               ; preds = %36
  %43 = add nuw nsw i64 %37, 1
  %44 = icmp eq i64 %43, %17
  br i1 %44, label %52, label %36, !llvm.loop !11

45:                                               ; preds = %32
  %46 = getelementptr inbounds [1001 x i32], [1001 x i32]* %3, i64 0, i64 %30
  %47 = load i32, i32* %46, align 4, !tbaa !5
  %48 = add nsw i32 %47, %35
  %49 = icmp eq i32 %48, %11
  br i1 %49, label %50, label %52

50:                                               ; preds = %36, %45
  %51 = add nsw i32 %29, 1
  br label %52

52:                                               ; preds = %42, %26, %45, %50
  %53 = phi i32 [ %51, %50 ], [ %29, %45 ], [ %29, %26 ], [ 0, %42 ]
  %54 = add nuw nsw i64 %28, 1
  %55 = icmp eq i64 %30, %16
  br i1 %55, label %56, label %26, !llvm.loop !12

56:                                               ; preds = %52
  %57 = icmp eq i32 %53, 0
  %58 = select i1 %57, i8* getelementptr inbounds ([3 x i8], [3 x i8]* @.str.2, i64 0, i64 0), i8* getelementptr inbounds ([4 x i8], [4 x i8]* @.str.3, i64 0, i64 0)
  br label %59

59:                                               ; preds = %56, %10, %0
  %60 = phi i8* [ getelementptr inbounds ([3 x i8], [3 x i8]* @.str.2, i64 0, i64 0), %0 ], [ getelementptr inbounds ([3 x i8], [3 x i8]* @.str.2, i64 0, i64 0), %10 ], [ %58, %56 ]
  %61 = call i32 (i8*, ...) @printf(i8* nonnull dereferenceable(1) %60)
  call void @llvm.lifetime.end.p0i8(i64 4004, i8* nonnull %6) #4
  call void @llvm.lifetime.end.p0i8(i64 4, i8* nonnull %5) #4
  call void @llvm.lifetime.end.p0i8(i64 4, i8* nonnull %4) #4
  ret i32 0
}

; Function Attrs: argmemonly mustprogress nofree nosync nounwind willreturn
declare void @llvm.lifetime.start.p0i8(i64 immarg, i8* nocapture) #1

; Function Attrs: argmemonly mustprogress nofree nounwind willreturn writeonly
declare void @llvm.memset.p0i8.i64(i8* nocapture writeonly, i8, i64, i1 immarg) #2

; Function Attrs: nofree nounwind
declare noundef i32 @__isoc99_scanf(i8* nocapture noundef readonly, ...) local_unnamed_addr #3

; Function Attrs: nofree nounwind
declare noundef i32 @printf(i8* nocapture noundef readonly, ...) local_unnamed_addr #3

; Function Attrs: argmemonly mustprogress nofree nosync nounwind willreturn
declare void @llvm.lifetime.end.p0i8(i64 immarg, i8* nocapture) #1


!llvm.module.flags = !{!0, !1, !2, !3}
!llvm.ident = !{!4}

!0 = !{i32 1, !"wchar_size", i32 4}
!1 = !{i32 7, !"PIC Level", i32 2}
!2 = !{i32 7, !"PIE Level", i32 2}
!3 = !{i32 7, !"uwtable", i32 1}
!4 = !{!"clang version 13.0.0"}
!5 = !{!6, !6, i64 0}
!6 = !{!"int", !7, i64 0}
!7 = !{!"omnipotent char", !8, i64 0}
!8 = !{!"Simple C/C++ TBAA"}
!9 = distinct !{!9, !10}
!10 = !{!"llvm.loop.mustprogress"}
!11 = distinct !{!11, !10}
!12 = distinct !{!12, !10}
